(lp0
(dp1
S'times_1000_iter'
p2
cnumpy.core.multiarray
scalar
p3
(cnumpy
dtype
p4
(S'f8'
p5
I0
I1
tp6
Rp7
(I3
S'<'
p8
NNNI-1
I-1
I0
tp9
bS'\x88\x88\x88\x88\xe2\x14\x92?'
p10
tp11
Rp12
sS'sample_size'
p13
g3
(g7
S'\x00\x00\x00\x00\x00\x00I@'
p14
tp15
Rp16
sS'run_time'
p17
F0.7602081298828125
sS'niter'
p18
I43026
sa(dp19
g2
g3
(g7
S'\xac q8/\xba\x91?'
p20
tp21
Rp22
sg13
g3
(g7
S'\x00\x00\x00\x00\x00@o@'
p23
tp24
Rp25
sg17
F3.8975985050201416
sg18
I225077
sa.