(lp0
(dp1
S'times_1000_iter'
p2
cnumpy.core.multiarray
scalar
p3
(cnumpy
dtype
p4
(S'f8'
p5
I0
I1
tp6
Rp7
(I3
S'<'
p8
NNNI-1
I-1
I0
tp9
bS'\xfa\xd7\x88\x7fq\x1b\xd1?'
p10
tp11
Rp12
sS'sample_size'
p13
I100
sS'niter'
p14
I12661
sS'T'
p15
I2
sS'run_time'
p16
F3.2081533432006837
sa(dp17
g2
g3
(g7
S'3333\x02i\xd4?'
p18
tp19
Rp20
sg13
I100
sg14
I8206
sg15
I3
sg16
F2.483984613418579
sa(dp21
g2
g3
(g7
S'\x00\x00\x00\x00K\xc0\xce?'
p22
tp23
Rp24
sg13
I100
sg14
I6757
sg15
I4
sg16
F1.568540334701538
sa(dp25
g2
g3
(g7
S'\xef\xee\xee\xae\xf1\x88\xd0?'
p26
tp27
Rp28
sg13
I100
sg14
I5678
sg15
I5
sg16
F1.3612324714660644
sa(dp29
g2
g3
(g7
S'\xcd\xcc\xcc\x8c\xbc\xb8\xd4?'
p30
tp31
Rp32
sg13
I100
sg14
I5225
sg15
I6
sg16
F1.6494126796722413
sa(dp33
g2
g3
(g7
S'\xbc\xbb\xbb\xbb\x7f\x91\xd2?'
p34
tp35
Rp36
sg13
I100
sg14
I5258
sg15
I7
sg16
F1.3362970352172852
sa(dp37
g2
g3
(g7
S'www7\xaaB\xd2?'
p38
tp39
Rp40
sg13
I100
sg14
I5107
sg15
I8
sg16
F1.3477458000183105
sa(dp41
g2
g3
(g7
S'\x9a\x99\x99Yc\xff\xd7?'
p42
tp43
Rp44
sg13
I100
sg14
I5299
sg15
I9
sg16
F1.8079408645629882
sa(dp45
g2
g3
(g7
S'www\xf7\xe0\xc5\xd4?'
p46
tp47
Rp48
sg13
I100
sg14
I5342
sg15
I10
sg16
F1.6363012313842773
sa(dp49
g2
g3
(g7
S'\x9a\x99\x99\x99\xd5_\xd4?'
p50
tp51
Rp52
sg13
I100
sg14
I5459
sg15
I11
sg16
F1.6263111114501954
sa(dp53
g2
g3
(g7
S'\x00\x00\x00@Pz\xda?'
p54
tp55
Rp56
sg13
I100
sg14
I5665
sg15
I12
sg16
F2.0503210067749023
sa(dp57
g2
g3
(g7
S'\xc6\x92_\xac}\xca\xd5?'
p58
tp59
Rp60
sg13
I100
sg14
I5773
sg15
I13
sg16
F1.8011335849761962
sa(dp61
g2
g3
(g7
S'\xa4p=\n~\xc4\xd8?'
p62
tp63
Rp64
sg13
I100
sg14
I5950
sg15
I14
sg16
F2.1255820274353026
sa(dp65
g2
g3
(g7
S'\xe2z\x14.#\x1b\xd8?'
p66
tp67
Rp68
sg13
I100
sg14
I6157
sg15
I15
sg16
F2.2114495754241945
sa(dp69
g2
g3
(g7
S'fff&\xf3\xd8\xd8?'
p70
tp71
Rp72
sg13
I100
sg14
I6040
sg15
I16
sg16
F2.1775126457214355
sa(dp73
g2
g3
(g7
S'\xcd\xcc\xcc\x0c\xfa\x85\xd8?'
p74
tp75
Rp76
sg13
I100
sg14
I6366
sg15
I17
sg16
F2.2840318202972414
sa(dp77
g2
g3
(g7
S'\rt\xda\xc0\xc0\x0e\xd6?'
p78
tp79
Rp80
sg13
I100
sg14
I6647
sg15
I18
sg16
F2.1059208869934083
sa(dp81
g2
g3
(g7
S'\xbc\xbb\xbb\xbb\x06g\xd9?'
p82
tp83
Rp84
sg13
I100
sg14
I7202
sg15
I19
sg16
F2.652552366256714
sa(dp85
g2
g3
(g7
S'\xe4\x17K~ep\xd9?'
p86
tp87
Rp88
sg13
I100
sg14
I6926
sg15
I20
sg16
F2.4863026618957518
sa(dp89
g2
g3
(g7
S'\x95RJa\t\x97\xd2?'
p90
tp91
Rp92
sg13
I250
sg14
I34436
sg15
I2
sg16
F9.583866024017334
sa(dp93
g2
g3
(g7
S'^\xa2\xe6\x8a\xf5G\xd3?'
p94
tp95
Rp96
sg13
I250
sg14
I19733
sg15
I3
sg16
F5.808486413955689
sa(dp97
g2
g3
(g7
S'\x15Va\x15~\x8e\xd4?'
p98
tp99
Rp100
sg13
I250
sg14
I15952
sg15
I4
sg16
F4.84586501121521
sa(dp101
g2
g3
(g7
S'C\x83!\xb4\x14S\xd4?'
p102
tp103
Rp104
sg13
I250
sg14
I13914
sg15
I5
sg16
F4.315195465087891
sa(dp105
g2
g3
(g7
S'\x9d-\xd5YY<\xd5?'
p106
tp107
Rp108
sg13
I250
sg14
I13899
sg15
I6
sg16
F4.495902633666992
sa(dp109
g2
g3
(g7
S'\x8e\xe38\x0e@b\xd6?'
p110
tp111
Rp112
sg13
I250
sg14
I12796
sg15
I7
sg16
F4.29438009262085
sa(dp113
g2
g3
(g7
S'Ce\x87)\x07\xea\xd4?'
p114
tp115
Rp116
sg13
I250
sg14
I12886
sg15
I8
sg16
F4.289777565002441
sa(dp117
g2
g3
(g7
S'\xb8\x1e\x85\xeb\xf7\x92\xd6?'
p118
tp119
Rp120
sg13
I250
sg14
I13056
sg15
I9
sg16
F4.457662439346313
sa(dp121
g2
g3
(g7
S'\xf4g9\x7fG\x94\xd5?'
p122
tp123
Rp124
sg13
I250
sg14
I13497
sg15
I10
sg16
F4.366498613357544
sa(dp125
g2
g3
(g7
S'\xd8\x88\x7f\x8d\xc7\x80\xd9?'
p126
tp127
Rp128
sg13
I250
sg14
I13471
sg15
I11
sg16
F4.963416242599488
sa(dp129
g2
g3
(g7
S'\xd0{\xf9\xbc3\xa7\xd7?'
p130
tp131
Rp132
sg13
I250
sg14
I14020
sg15
I12
sg16
F5.366941738128662
sa(dp133
g2
g3
(g7
S'SyA\xd5\xc2-\xd9?'
p134
tp135
Rp136
sg13
I250
sg14
I14562
sg15
I13
sg16
F5.464140319824219
sa(dp137
g2
g3
(g7
S'}lS\xe5t/\xd9?'
p138
tp139
Rp140
sg13
I250
sg14
I15092
sg15
I14
sg16
F5.58073935508728
sa(dp141
g2
g3
(g7
S'\xe2\xa0<\x84\xf3\xef\xda?'
p142
tp143
Rp144
sg13
I250
sg14
I15608
sg15
I15
sg16
F6.12503981590271
sa(dp145
g2
g3
(g7
S'\x9b\xae\xe9\x9a\xeb\xee\xd7?'
p146
tp147
Rp148
sg13
I250
sg14
I15770
sg15
I16
sg16
F5.641477775573731
sa(dp149
g2
g3
(g7
S'\xca\x8d\xdc\xc8K\xd3\xdc?'
p150
tp151
Rp152
sg13
I250
sg14
I16603
sg15
I17
sg16
F7.031176233291626
sa(dp153
g2
g3
(g7
S'\xc6W|\x85\x9e\xda\xd9?'
p154
tp155
Rp156
sg13
I250
sg14
I16783
sg15
I18
sg16
F6.4543555736541744
sa(dp157
g2
g3
(g7
S'\x00\xf7o\x7fo\x92\xda?'
p158
tp159
Rp160
sg13
I250
sg14
I16837
sg15
I19
sg16
F6.532339000701905
sa(dp161
g2
g3
(g7
S'%I\x92\xa4v\xe7\xdc?'
p162
tp163
Rp164
sg13
I250
sg14
I17465
sg15
I20
sg16
F7.36394739151001
sa(dp165
g2
g3
(g7
S's\xc0\xde!h\x97\xd2?'
p166
tp167
Rp168
sg13
I500
sg14
I66065
sg15
I2
sg16
F18.383432388305664
sa(dp169
g2
g3
(g7
S'\xdbk\xf4\xd1Vd\xd7?'
p170
tp171
Rp172
sg13
I500
sg14
I40234
sg15
I3
sg16
F14.647396850585938
sa(dp173
g2
g3
(g7
S'\xe6\x16\x19|\xd5b\xd7?'
p174
tp175
Rp176
sg13
I500
sg14
I32434
sg15
I4
sg16
F11.139489316940308
sa(dp177
g2
g3
(g7
S'\xffn\x83N\tz\xd8?'
p178
tp179
Rp180
sg13
I500
sg14
I28517
sg15
I5
sg16
F10.088414859771728
sa(dp181
g2
g3
(g7
S'Q\x07uP\xbcY\xd9?'
p182
tp183
Rp184
sg13
I500
sg14
I26438
sg15
I6
sg16
F9.737789630889893
sa(dp185
g2
g3
(g7
S'^\x0b\xa3\xc9\xe7\xda\xdb?'
p186
tp187
Rp188
sg13
I500
sg14
I25808
sg15
I7
sg16
F10.253204822540283
sa(dp189
g2
g3
(g7
S'J\x951l\xeb\x13\xda?'
p190
tp191
Rp192
sg13
I500
sg14
I25821
sg15
I8
sg16
F9.922534036636353
sa(dp193
g2
g3
(g7
S'uP\x07ur\xba\xdb?'
p194
tp195
Rp196
sg13
I500
sg14
I26675
sg15
I9
sg16
F10.69751696586609
sa(dp197
g2
g3
(g7
S'\x86\xe2V\xe8\xa2\xa0\xdd?'
p198
tp199
Rp200
sg13
I500
sg14
I26466
sg15
I10
sg16
F11.03430905342102
sa(dp201
g2
g3
(g7
S'b\x97G?fe\xdc?'
p202
tp203
Rp204
sg13
I500
sg14
I27758
sg15
I11
sg16
F11.216548824310303
sa(dp205
g2
g3
(g7
S'\xb2\xa5\xde\x00\x08\xba\xe1?'
p206
tp207
Rp208
sg13
I500
sg14
I27788
sg15
I12
sg16
F13.783938789367676
sa(dp209
g2
g3
(g7
S'5\x17\xb8\x8dW\x8d\xe0?'
p210
tp211
Rp212
sg13
I500
sg14
I28595
sg15
I13
sg16
F13.8051127910614
sa(dp213
g2
g3
(g7
S'\xcblaE\xa7\xd2\xdf?'
p214
tp215
Rp216
sg13
I500
sg14
I29413
sg15
I14
sg16
F13.550934028625488
sa(dp217
g2
g3
(g7
S'\x12\xb3\xca\xa4(\xcc\xe1?'
p218
tp219
Rp220
sg13
I500
sg14
I30478
sg15
I15
sg16
F15.560120439529419
sa(dp221
g2
g3
(g7
S'\x85\xa3\x8do\x02\x00\xe3?'
p222
tp223
Rp224
sg13
I500
sg14
I31665
sg15
I16
sg16
F17.811458396911622
sa(dp225
g2
g3
(g7
S'\xad\x96v\rL\xe8\xe2?'
p226
tp227
Rp228
sg13
I500
sg14
I33026
sg15
I17
sg16
F17.83355541229248
sa(dp229
g2
g3
(g7
S'\xd3\x96&1J\xec\xe2?'
p230
tp231
Rp232
sg13
I500
sg14
I33776
sg15
I18
sg16
F18.26096639633179
sa(dp233
g2
g3
(g7
S'Qu\xf7[3\xbb\xe2?'
p234
tp235
Rp236
sg13
I500
sg14
I34394
sg15
I19
sg16
F18.51848359107971
sa(dp237
g2
g3
(g7
S'\x91\xb8=\x00\xb2\x18\xe3?'
p238
tp239
Rp240
sg13
I500
sg14
I35672
sg15
I20
sg16
F19.82650022506714
sa(dp241
g2
g3
(g7
S'?\xca\xd1152\xd5?'
p242
tp243
Rp244
sg13
I1000
sg14
I138724
sg15
I2
sg16
F44.21607809066772
sa(dp245
g2
g3
(g7
S'j*\x8b\xc3\xfd\xc3\xe1?'
p246
tp247
Rp248
sg13
I1000
sg14
I79446
sg15
I3
sg16
F41.008321046829224
sa(dp249
g2
g3
(g7
S'\xfe\xe07\xa0;\xab\xe2?'
p250
tp251
Rp252
sg13
I1000
sg14
I62738
sg15
I4
sg16
F32.632401657104495
sa(dp253
g2
g3
(g7
S'\xde\x14\xbe|Ag\xdf?'
p254
tp255
Rp256
sg13
I1000
sg14
I56762
sg15
I5
sg16
F24.972118425369263
sa(dp257
g2
g3
(g7
S'oj<\xbc\x1b\xc9\xe3?'
p258
tp259
Rp260
sg13
I1000
sg14
I52837
sg15
I6
sg16
F28.69432921409607
sa(dp261
g2
g3
(g7
S'\x1c\xb7<\xdd\xbb\xc4\xe5?'
p262
tp263
Rp264
sg13
I1000
sg14
I52490
sg15
I7
sg16
F31.352501344680785
sa(dp265
g2
g3
(g7
S'\xd9\xf0n\x7f /\xe3?'
p266
tp267
Rp268
sg13
I1000
sg14
I52363
sg15
I8
sg16
F27.58945736885071
sa(dp269
g2
g3
(g7
S'\xb8\xc2pl\x85\x8c\xe4?'
p270
tp271
Rp272
sg13
I1000
sg14
I52807
sg15
I9
sg16
F29.569037771224977
sa(dp273
g2
g3
(g7
S'\x7f\xc7\x9e\x02\x1e\x10\xe4?'
p274
tp275
Rp276
sg13
I1000
sg14
I53765
sg15
I10
sg16
F29.340433216094972
sa(dp277
g2
g3
(g7
S'\x19\x1e\x04}\xbc\xc1\xe4?'
p278
tp279
Rp280
sg13
I1000
sg14
I54608
sg15
I11
sg16
F30.71435751914978
sa(dp281
g2
g3
(g7
S'\x8e\xac\xb7\xd6G~\xe5?'
p282
tp283
Rp284
sg13
I1000
sg14
I56480
sg15
I12
sg16
F33.29240717887878
sa(dp285
g2
g3
(g7
S'\x1c\x19\xd6\xf6Z\x8c\xe7?'
p286
tp287
Rp288
sg13
I1000
sg14
I57964
sg15
I13
sg16
F38.295398235321045
sa(dp289
g2
g3
(g7
S'x\x7f\x10K\xbdD\xe5?'
p290
tp291
Rp292
sg13
I1000
sg14
I59238
sg15
I14
sg16
F34.51532759666443
sa(dp293
g2
g3
(g7
S'J\xae@7\x9f\x9d\xe6?'
p294
tp295
Rp296
sg13
I1000
sg14
I61248
sg15
I15
sg16
F38.2851948261261
sa(dp297
g2
g3
(g7
S'\xea\xab\x8b\xbf0\x0f\xe5?'
p298
tp299
Rp300
sg13
I1000
sg14
I62873
sg15
I16
sg16
F37.04283518791199
sa(dp301
g2
g3
(g7
S'\xa6\x97\xf8\x12\xf6\x0e\xe8?'
p302
tp303
Rp304
sg13
I1000
sg14
I65652
sg15
I17
sg16
F43.830048656463624
sa(dp305
g2
g3
(g7
S'\xeb\xe9\x80>\x95\xba\xe8?'
p306
tp307
Rp308
sg13
I1000
sg14
I66445
sg15
I18
sg16
F45.676356601715085
sa(dp309
g2
g3
(g7
S'\xd9fy\xf5\xa6\xe3\xe8?'
p310
tp311
Rp312
sg13
I1000
sg14
I67980
sg15
I19
sg16
F47.58206996917725
sa(dp313
g2
g3
(g7
S'\x9eotF_\xf2\xe7?'
p314
tp315
Rp316
sg13
I1000
sg14
I70265
sg15
I20
sg16
F47.3979395866394
sa.