(lp0
(dp1
S'times_1000_iter'
p2
cnumpy.core.multiarray
scalar
p3
(cnumpy
dtype
p4
(S'f8'
p5
I0
I1
tp6
Rp7
(I3
S'<'
p8
NNNI-1
I-1
I0
tp9
bS'{\xc1\x82\xcb\x87!\xd8?'
p10
tp11
Rp12
sS'sample_size'
p13
I100
sS'niter'
p14
I14064
sS'T'
p15
I2
sS'run_time'
p16
F5.026631657282511
sa(dp17
g2
g3
(g7
S'\xa4O\xfa$\xfe\xf2\xd5?'
p18
tp19
Rp20
sg13
I100
sg14
I8283
sg15
I3
sg16
F2.8774364789326987
sa(dp21
g2
g3
(g7
S'\xb0\x05[\xb0\xedC\xd6?'
p22
tp23
Rp24
sg13
I100
sg14
I6185
sg15
I4
sg16
F2.049685176213582
sa(dp25
g2
g3
(g7
S'j\x03\x9d\xb6\xe3r\xd8?'
p26
tp27
Rp28
sg13
I100
sg14
I5611
sg15
I5
sg16
F2.0743502140045167
sa(dp29
g2
g3
(g7
S'\x9f\xf4I\x9fc\xf0\xda?'
p30
tp31
Rp32
sg13
I100
sg14
I5205
sg15
I6
sg16
F2.1598319530487062
sa(dp33
g2
g3
(g7
S'\x8f\xc2\xf5\xe8\xbf1\xd8?'
p34
tp35
Rp36
sg13
I100
sg14
I5281
sg15
I7
sg16
F1.8862779458363852
sa(dp37
g2
g3
(g7
S'\x06[\xb0\x05uc\xe1?'
p38
tp39
Rp40
sg13
I100
sg14
I5363
sg15
I8
sg16
F2.66323348681132
sa(dp41
g2
g3
(g7
S'u\xda@\xa7f{\xe0?'
p42
tp43
Rp44
sg13
I100
sg14
I5384
sg15
I9
sg16
F2.543868064880371
sa(dp45
g2
g3
(g7
S'\xc5\xb3\xa2\xd1\x18\xbf\xdb?'
p46
tp47
Rp48
sg13
I100
sg14
I5443
sg15
I10
sg16
F2.162924607594808
sa(dp49
g2
g3
(g7
S'\x0fO\xf4\xbc\x03\xf7\xd5?'
p50
tp51
Rp52
sg13
I250
sg14
I34689
sg15
I2
sg16
F11.564490874608358
sa(dp53
g2
g3
(g7
S'\xf0\xabg\x13\xa7\x82\xd9?'
p54
tp55
Rp56
sg13
I250
sg14
I20155
sg15
I3
sg16
F7.861550998687744
sa(dp57
g2
g3
(g7
S'C>\xe4\x03z\xb3\xde?'
p58
tp59
Rp60
sg13
I250
sg14
I16036
sg15
I4
sg16
F7.500060129165649
sa(dp61
g2
g3
(g7
S'\xa9"\xc4\xdbN|\xdc?'
p62
tp63
Rp64
sg13
I250
sg14
I14613
sg15
I5
sg16
F6.4468216101328535
sa(dp65
g2
g3
(g7
S'6\x05i\x9a\x9bc\xde?'
p66
tp67
Rp68
sg13
I250
sg14
I13346
sg15
I6
sg16
F6.501954015096029
sa(dp69
g2
g3
(g7
S'\x13\xbfZ\xb8\xd1d\xdb?'
p70
tp71
Rp72
sg13
I250
sg14
I13169
sg15
I7
sg16
F5.401312478383383
sa(dp73
g2
g3
(g7
S"'\x92q\xa2z\xf8\xdc?"
p74
tp75
Rp76
sg13
I250
sg14
I13284
sg15
I8
sg16
F6.009447924296061
sa(dp77
g2
g3
(g7
S'6\xfa\xa7\xf8F\x81\xdc?'
p78
tp79
Rp80
sg13
I250
sg14
I13464
sg15
I9
sg16
F5.7245972633361815
sa(dp81
g2
g3
(g7
S'B\xa6*+\rX\xdc?'
p82
tp83
Rp84
sg13
I250
sg14
I13432
sg15
I10
sg16
F5.950329351425171
sa(dp85
g2
g3
(g7
S'\xc6\xd2\xc7\xed\xedL\xd8?'
p86
tp87
Rp88
sg13
I500
sg14
I67861
sg15
I2
sg16
F24.677398618062337
sa(dp89
g2
g3
(g7
S'\x9f\x15\xacmK\xe8\xdc?'
p90
tp91
Rp92
sg13
I500
sg14
I40664
sg15
I3
sg16
F17.42467800776164
sa(dp93
g2
g3
(g7
S'\x99f\xd7\xbb\xf5\xcf\xe0?'
p94
tp95
Rp96
sg13
I500
sg14
I31756
sg15
I4
sg16
F15.868614212671917
sa(dp97
g2
g3
(g7
S'\xfbw\x17\xaa\x8b \xe0?'
p98
tp99
Rp100
sg13
I500
sg14
I28129
sg15
I5
sg16
F13.658093070983886
sa(dp101
g2
g3
(g7
S'\xca;\xd0\xf3\x16u\xdf?'
p102
tp103
Rp104
sg13
I500
sg14
I26305
sg15
I6
sg16
F12.026451762517294
sa(dp105
g2
g3
(g7
S'\xa6\xe2\xc4\x13\xdd\x06\xe1?'
p106
tp107
Rp108
sg13
I500
sg14
I26062
sg15
I7
sg16
F12.712495676676433
sa(dp109
g2
g3
(g7
S'k\x8e\xb1=\xfb_\xe2?'
p110
tp111
Rp112
sg13
I500
sg14
I26331
sg15
I8
sg16
F13.734764703114827
sa(dp113
g2
g3
(g7
S'm\x97\xd8V.\xa7\xe3?'
p114
tp115
Rp116
sg13
I500
sg14
I26452
sg15
I9
sg16
F15.12118484179179
sa(dp117
g2
g3
(g7
S'\xf0\xeb\xc4\x01\xa4\r\xe5?'
p118
tp119
Rp120
sg13
I500
sg14
I27129
sg15
I10
sg16
F16.070649528503417
sa(dp121
g2
g3
(g7
S'\xfaaez<j\xd9?'
p122
tp123
Rp124
sg13
I1000
sg14
I137093
sg15
I2
sg16
F52.11703133583069
sa(dp125
g2
g3
(g7
S'\xe9 \x19&\xb9\x04\xe5?'
p126
tp127
Rp128
sg13
I1000
sg14
I80341
sg15
I3
sg16
F48.24073828061422
sa(dp129
g2
g3
(g7
S'QA3\xc4\xd6\xf9\xe5?'
p130
tp131
Rp132
sg13
I1000
sg14
I63396
sg15
I4
sg16
F38.87115562756856
sa(dp133
g2
g3
(g7
S'\x04\x9f\xe8?\x91;\xe6?'
p134
tp135
Rp136
sg13
I1000
sg14
I56365
sg15
I5
sg16
F34.53518773714701
sa(dp137
g2
g3
(g7
S'\xeaD\xd0\xdf\xae\x81\xe6?'
p138
tp139
Rp140
sg13
I1000
sg14
I53654
sg15
I6
sg16
F33.492167170842485
sa(dp141
g2
g3
(g7
S'\xecc\t\xd9%\xb7\xe3?'
p142
tp143
Rp144
sg13
I1000
sg14
I52828
sg15
I7
sg16
F28.298916387557984
sa(dp145
g2
g3
(g7
S'{, \x05m\xc2\xe4?'
p146
tp147
Rp148
sg13
I1000
sg14
I52729
sg15
I8
sg16
F29.71019194920858
sa(dp149
g2
g3
(g7
S'j\x0c\x18\xf2\xb6\xfe\xe5?'
p150
tp151
Rp152
sg13
I1000
sg14
I53347
sg15
I9
sg16
F32.0737223148346
sa(dp153
g2
g3
(g7
S'\xe6&k-\x9f\x81\xe6?'
p154
tp155
Rp156
sg13
I1000
sg14
I54042
sg15
I10
sg16
F33.16566330591838
sa.