(lp0
(dp1
S'times_1000_iter'
p2
cnumpy.core.multiarray
scalar
p3
(cnumpy
dtype
p4
(S'f8'
p5
I0
I1
tp6
Rp7
(I3
S'<'
p8
NNNI-1
I-1
I0
tp9
bS'\x00\x00\x00\x00\xc4s\xa7?'
p10
tp11
Rp12
sS'sample_size'
p13
g3
(g7
S'\x00\x00\x00\x00\x00\x00I@'
p14
tp15
Rp16
sS'k'
p17
I0
sS'run_time'
p18
F0.1656639575958252
sS'niter'
p19
I3181
sa(dp20
g2
g3
(g7
S'\x00\x00\x00\x00\xc8\xb7\xa7?'
p21
tp22
Rp23
sg13
g16
sg17
I1
sg18
F0.14378094673156738
sg19
I2890
sa(dp24
g2
g3
(g7
S'\xab\xaa\xaa\xaaR\xa4\xad?'
p25
tp26
Rp27
sg13
g3
(g7
S'\x00\x00\x00\x00\x00\x00Y@'
p28
tp29
Rp30
sg17
I0
sg18
F0.37769412994384766
sg19
I7097
sa(dp31
g2
g3
(g7
S'\x00\x00\x00\x00r\t\xad?'
p32
tp33
Rp34
sg13
g30
sg17
I1
sg18
F0.35352396965026855
sg19
I6107
sa.