(lp0
(dp1
S'times_1000_iter'
p2
cnumpy.core.multiarray
scalar
p3
(cnumpy
dtype
p4
(S'f8'
p5
I0
I1
tp6
Rp7
(I3
S'<'
p8
NNNI-1
I-1
I0
tp9
bS'\xc7q\x1c\xc7\xe1*\x92?'
p10
tp11
Rp12
sS'sample_size'
p13
g3
(g7
S'\x00\x00\x00\x00\x00\x00I@'
p14
tp15
Rp16
sS'k'
p17
I0
sS'run_time'
p18
F0.6462740898132324
sS'niter'
p19
I36369
sa(dp20
g2
g3
(g7
S'""""\xb6]\x92?'
p21
tp22
Rp23
sg13
g16
sg17
I1
sg18
F1.080183982849121
sg19
I60196
sa(dp24
g2
g3
(g7
S'u\x07\xfb\xadv\xe1\x91?'
p25
tp26
Rp27
sg13
g3
(g7
S'\x00\x00\x00\x00\x00\x00Y@'
p28
tp29
Rp30
sg17
I0
sg18
F1.808298110961914
sg19
I103536
sa(dp31
g2
g3
(g7
S'\xab\xaa\xaa\xaaJ]\x91?'
p32
tp33
Rp34
sg13
g30
sg17
I1
sg18
F1.7919549942016602
sg19
I105638
sa.