(lp0
(dp1
S'niter'
p2
I11397
sS'k'
p3
I0
sS'times_1000_iter'
p4
cnumpy.core.multiarray
scalar
p5
(cnumpy
dtype
p6
(S'f8'
p7
I0
I1
tp8
Rp9
(I3
S'<'
p10
NNNI-1
I-1
I0
tp11
bS'\x9a\x99\x99\x99\xcd\xa4\xaa?'
p12
tp13
Rp14
sS'sample_size'
p15
I100
sS'T'
p16
I2
sS'run_time'
p17
F0.5693659782409668
sa(dp18
g2
I14517
sg3
I1
sg4
g5
(g9
S'\xab\xaa\xaa\xaa\xb4\x9b\xaa?'
p19
tp20
Rp21
sg15
I100
sg16
I2
sg17
F0.7160661220550537
sa(dp22
g2
I7371
sg3
I0
sg4
g5
(g9
S'UUUU\x91\x1d\xab?'
p23
tp24
Rp25
sg15
I100
sg16
I3
sg17
F0.36411499977111816
sa(dp26
g2
I8031
sg3
I1
sg4
g5
(g9
S'I\x92$I\xeaK\xab?'
p27
tp28
Rp29
sg15
I100
sg16
I3
sg17
F0.39335203170776367
sa(dp30
g2
I5815
sg3
I0
sg4
g5
(g9
S'UUUU\xbdh\xa9?'
p31
tp32
Rp33
sg15
I100
sg16
I4
sg17
F0.29714393615722656
sa(dp34
g2
I6828
sg3
I1
sg4
g5
(g9
S'3333\xbb\xff\xac?'
p35
tp36
Rp37
sg15
I100
sg16
I4
sg17
F0.34854602813720703
sa(dp38
g2
I6028
sg3
I0
sg4
g5
(g9
S'\x00\x00\x00\x00\xd8\x0c\xad?'
p39
tp40
Rp41
sg15
I100
sg16
I5
sg17
F0.3261430263519287
sa(dp42
g2
I5857
sg3
I1
sg4
g5
(g9
S'\x00\x00\x00\x00N\x82\xaf?'
p43
tp44
Rp45
sg15
I100
sg16
I5
sg17
F0.3099091053009033
sa(dp46
g2
I5100
sg3
I0
sg4
g5
(g9
S'\x00\x00\x00\x008f\xb0?'
p47
tp48
Rp49
sg15
I100
sg16
I6
sg17
F0.2820589542388916
sa(dp50
g2
I5121
sg3
I1
sg4
g5
(g9
S'\x00\x00\x00\x00H\x8c\xa9?'
p51
tp52
Rp53
sg15
I100
sg16
I6
sg17
F0.27900195121765137
sa(dp54
g2
I5606
sg3
I0
sg4
g5
(g9
S'\x00\x00\x00\x00\xde\xe7\xb1?'
p55
tp56
Rp57
sg15
I100
sg16
I7
sg17
F0.33144378662109375
sa(dp58
g2
I5298
sg3
I1
sg4
g5
(g9
S'\x00\x00\x00\x00\x90\xbe\xa9?'
p59
tp60
Rp61
sg15
I100
sg16
I7
sg17
F0.3084428310394287
sa(dp62
g2
I5074
sg3
I0
sg4
g5
(g9
S'\x00\x00\x00\x00\x17\x07\xb1?'
p63
tp64
Rp65
sg15
I100
sg16
I8
sg17
F0.30063796043395996
sa(dp66
g2
I6308
sg3
I1
sg4
g5
(g9
S'\x00\x00\x00\x00nT\xab?'
p67
tp68
Rp69
sg15
I100
sg16
I8
sg17
F0.35517287254333496
sa(dp70
g2
I5260
sg3
I0
sg4
g5
(g9
S'\x00\x00\x00\x00mu\xb0?'
p71
tp72
Rp73
sg15
I100
sg16
I9
sg17
F0.3178708553314209
sa(dp74
g2
I4956
sg3
I1
sg4
g5
(g9
S'\xab\xaa\xaa\xaaN\xe0\xb0?'
p75
tp76
Rp77
sg15
I100
sg16
I9
sg17
F0.30748796463012695
sa(dp78
g2
I5677
sg3
I0
sg4
g5
(g9
S'\x00\x00\x00\x00Z\x0c\xb0?'
p79
tp80
Rp81
sg15
I100
sg16
I10
sg17
F0.3475229740142822
sa(dp82
g2
I5324
sg3
I1
sg4
g5
(g9
S'\x00\x00\x00\x00\xee\xca\xb1?'
p83
tp84
Rp85
sg15
I100
sg16
I10
sg17
F0.3362729549407959
sa(dp86
g2
I34297
sg3
I0
sg4
g5
(g9
S'\xd7Zk\xad\xe5\xc0\xaa?'
p87
tp88
Rp89
sg15
I250
sg16
I2
sg17
F1.6976089477539062
sa(dp90
g2
I34013
sg3
I1
sg4
g5
(g9
S'c\x8c1\xc6 \xa8\xaa?'
p91
tp92
Rp93
sg15
I250
sg16
I2
sg17
F1.6917259693145752
sa(dp94
g2
I21277
sg3
I0
sg4
g5
(g9
S'r\x1c\xc7q\xe8>\xaf?'
p95
tp96
Rp97
sg15
I250
sg16
I3
sg17
F1.283033847808838
sa(dp98
g2
I17807
sg3
I1
sg4
g5
(g9
S'n\xdb\xb6mO\x12\xb0?'
p99
tp100
Rp101
sg15
I250
sg16
I3
sg17
F1.106194019317627
sa(dp102
g2
I16422
sg3
I0
sg4
g5
(g9
S'\x9e\xd8\x89\x9d\x90\x89\xaf?'
p103
tp104
Rp105
sg15
I250
sg16
I4
sg17
F0.9933178424835205
sa(dp106
g2
I17139
sg3
I1
sg4
g5
(g9
S'n\xdb\xb6m{\x9a\xaf?'
p107
tp108
Rp109
sg15
I250
sg16
I4
sg17
F1.024420976638794
sa(dp110
g2
I14858
sg3
I0
sg4
g5
(g9
S'\xd1E\x17]h\x92\xb0?'
p111
tp112
Rp113
sg15
I250
sg16
I5
sg17
F0.9226160049438477
sa(dp114
g2
I14043
sg3
I1
sg4
g5
(g9
S'\xd1E\x17]\xc00\xb0?'
p115
tp116
Rp117
sg15
I250
sg16
I5
sg17
F0.8805501461029053
sa(dp118
g2
I14132
sg3
I0
sg4
g5
(g9
S'\x17]t\xd1e\x06\xb1?'
p119
tp120
Rp121
sg15
I250
sg16
I6
sg17
F0.9220550060272217
sa(dp122
g2
I13934
sg3
I1
sg4
g5
(g9
S'\x00\x00\x00\x00\xd4l\xb1?'
p123
tp124
Rp125
sg15
I250
sg16
I6
sg17
F0.9087841510772705
sa(dp126
g2
I13818
sg3
I0
sg4
g5
(g9
S'\x9a\x99\x99\x99\xbf\x17\xb2?'
p127
tp128
Rp129
sg15
I250
sg16
I7
sg17
F0.9101119041442871
sa(dp130
g2
I14210
sg3
I1
sg4
g5
(g9
S'\xd1E\x17]x\xf5\xb1?'
p131
tp132
Rp133
sg15
I250
sg16
I7
sg17
F0.9662520885467529
sa(dp134
g2
I12621
sg3
I0
sg4
g5
(g9
S'\xc7q\x1c\xc7\x85\xf9\xb2?'
p135
tp136
Rp137
sg15
I250
sg16
I8
sg17
F0.8836190700531006
sa(dp138
g2
I13685
sg3
I1
sg4
g5
(g9
S'\x9a\x99\x99\x99\xbd\xcb\xb2?'
p139
tp140
Rp141
sg15
I250
sg16
I8
sg17
F0.930466890335083
sa(dp142
g2
I13396
sg3
I0
sg4
g5
(g9
S'3333_\xf6\xb2?'
p143
tp144
Rp145
sg15
I250
sg16
I9
sg17
F0.9539048671722412
sa(dp146
g2
I13693
sg3
I1
sg4
g5
(g9
S'3333\x05\x17\xb3?'
p147
tp148
Rp149
sg15
I250
sg16
I9
sg17
F0.9641168117523193
sa(dp150
g2
I14314
sg3
I0
sg4
g5
(g9
S'\xba\xe8\xa2\x8bF\x12\xb3?'
p151
tp152
Rp153
sg15
I250
sg16
I10
sg17
F1.030656099319458
sa(dp154
g2
I13356
sg3
I1
sg4
g5
(g9
S'ffff\x92\xcd\xb3?'
p155
tp156
Rp157
sg15
I250
sg16
I10
sg17
F0.981726884841919
sa(dp158
g2
I76149
sg3
I0
sg4
g5
(g9
S'=\x19\xbf]\xfa\xa0\xab?'
p159
tp160
Rp161
sg15
I500
sg16
I2
sg17
F3.929126024246216
sa(dp162
g2
I76238
sg3
I1
sg4
g5
(g9
S'\xd1\n\x9b\x03\xc9\x99\xab?'
p163
tp164
Rp165
sg15
I500
sg16
I2
sg17
F3.940387010574341
sa(dp166
g2
I41407
sg3
I0
sg4
g5
(g9
S'\xc7q\x1c\xc7\xd8\x87\xb4?'
p167
tp168
Rp169
sg15
I500
sg16
I3
sg17
F3.0451390743255615
sa(dp170
g2
I40185
sg3
I1
sg4
g5
(g9
S"ffffb'\xb5?"
p171
tp172
Rp173
sg15
I500
sg16
I3
sg17
F3.043034076690674
sa(dp174
g2
I31204
sg3
I0
sg4
g5
(g9
S'\x9e\xd8\x89\x9d\xf2\xc5\xb5?'
p175
tp176
Rp177
sg15
I500
sg16
I4
sg17
F2.3993418216705322
sa(dp178
g2
I33090
sg3
I1
sg4
g5
(g9
S'h/\xa1\xbd\xbci\xb5?'
p179
tp180
Rp181
sg15
I500
sg16
I4
sg17
F2.499391794204712
sa(dp182
g2
I29207
sg3
I0
sg4
g5
(g9
S'\x00\x00\x00\x80\xd1\x89\xb6?'
p183
tp184
Rp185
sg15
I500
sg16
I5
sg17
F2.2528159618377686
sa(dp186
g2
I28269
sg3
I1
sg4
g5
(g9
S'\xf5\xa67\xbd\xa1\xd6\xb6?'
p187
tp188
Rp189
sg15
I500
sg16
I5
sg17
F2.187150001525879
sa(dp190
g2
I27320
sg3
I0
sg4
g5
(g9
S'\x8c.\xba\xe8\xa2\x10\xb7?'
p191
tp192
Rp193
sg15
I500
sg16
I6
sg17
F2.1882669925689697
sa(dp194
g2
I25296
sg3
I1
sg4
g5
(g9
S'3333C\xaa\xb7?'
p195
tp196
Rp197
sg15
I500
sg16
I6
sg17
F2.036418914794922
sa(dp198
g2
I26215
sg3
I0
sg4
g5
(g9
S'\xdb\xb6m\xdb\xce\x97\xb8?'
p199
tp200
Rp201
sg15
I500
sg16
I7
sg17
F2.185546875
sa(dp202
g2
I26758
sg3
I1
sg4
g5
(g9
S'1\x0c\xc30\x18w\xb8?'
p203
tp204
Rp205
sg15
I500
sg16
I7
sg17
F2.2160239219665527
sa(dp206
g2
I27819
sg3
I0
sg4
g5
(g9
S'\x8c.\xba\xe8 \xdb\xb8?'
p207
tp208
Rp209
sg15
I500
sg16
I8
sg17
F2.393347978591919
sa(dp210
g2
I25870
sg3
I1
sg4
g5
(g9
S'ffff\xb2\xcf\xb9?'
p211
tp212
Rp213
sg15
I500
sg16
I8
sg17
F2.1910619735717773
sa(dp214
g2
I26902
sg3
I0
sg4
g5
(g9
S'UUUU\t\xe8\xb9?'
p215
tp216
Rp217
sg15
I500
sg16
I9
sg17
F2.35286808013916
sa(dp218
g2
I27413
sg3
I1
sg4
g5
(g9
S'\x8c.\xba\xe8\n\x90\xb9?'
p219
tp220
Rp221
sg15
I500
sg16
I9
sg17
F2.377737045288086
sa(dp222
g2
I26759
sg3
I0
sg4
g5
(g9
S'\xb7m\xdb\xb6\xd5\xe9\xba?'
p223
tp224
Rp225
sg15
I500
sg16
I10
sg17
F2.383586883544922
sa(dp226
g2
I27974
sg3
I1
sg4
g5
(g9
S'\xba\xe8\xa2\x8b&\x84\xb9?'
p227
tp228
Rp229
sg15
I500
sg16
I10
sg17
F2.5054879188537598
sa(dp230
g2
I142417
sg3
I0
sg4
g5
(g9
S'\xc5\t)y\xd6\xe7\xad?'
p231
tp232
Rp233
sg15
I1000
sg16
I2
sg17
F7.903879880905151
sa(dp234
g2
I141145
sg3
I1
sg4
g5
(g9
S'\xec\xc4N\xec\xec\x02\xae?'
p235
tp236
Rp237
sg15
I1000
sg16
I2
sg17
F7.85154914855957
sa(dp238
g2
I81170
sg3
I0
sg4
g5
(g9
S'\xa2\x156\x07B\x9f\xbc?'
p239
tp240
Rp241
sg15
I1000
sg16
I3
sg17
F8.193564891815186
sa(dp242
g2
I83524
sg3
I1
sg4
g5
(g9
S'\xeb\xd5\xabW\xb7\xae\xbc?'
p243
tp244
Rp245
sg15
I1000
sg16
I3
sg17
F8.47868299484253
sa(dp246
g2
I63295
sg3
I0
sg4
g5
(g9
S'\xa9\t\xc6[\xcd\x97\xbe?'
p247
tp248
Rp249
sg15
I1000
sg16
I4
sg17
F6.5489959716796875
sa(dp250
g2
I64040
sg3
I1
sg4
g5
(g9
S'\xb4\x97\xd0^*\x85\xbe?'
p251
tp252
Rp253
sg15
I1000
sg16
I4
sg17
F6.697755813598633
sa(dp254
g2
I57452
sg3
I0
sg4
g5
(g9
S'W\x10\x93+ l\xbf?'
p255
tp256
Rp257
sg15
I1000
sg16
I5
sg17
F6.088948965072632
sa(dp258
g2
I60770
sg3
I1
sg4
g5
(g9
S'\xb7m\xdb\xb6\xbd\xcd\xbe?'
p259
tp260
Rp261
sg15
I1000
sg16
I5
sg17
F6.401726007461548
sa(dp262
g2
I53971
sg3
I0
sg4
g5
(g9
S'G\xdc\x11w`^\xc0?'
p263
tp264
Rp265
sg15
I1000
sg16
I6
sg17
F5.898319959640503
sa(dp266
g2
I55639
sg3
I1
sg4
g5
(g9
S"\xd2'}\xd2\xe3\xcb\xc0?"
p267
tp268
Rp269
sg15
I1000
sg16
I6
sg17
F6.258242130279541
sa(dp270
g2
I52028
sg3
I0
sg4
g5
(g9
S'\x86a\x18\x86\x1d\x0b\xc1?'
p271
tp272
Rp273
sg15
I1000
sg16
I7
sg17
F5.841796159744263
sa(dp274
g2
I50735
sg3
I1
sg4
g5
(g9
S'\x00\x00\x00\xc0O!\xc1?'
p275
tp276
Rp277
sg15
I1000
sg16
I7
sg17
F5.808909893035889
sa(dp278
g2
I54214
sg3
I0
sg4
g5
(g9
S'\x8f\xb8#\xee\xdeM\xc1?'
p279
tp280
Rp281
sg15
I1000
sg16
I8
sg17
F6.265406131744385
sa(dp282
g2
I52692
sg3
I1
sg4
g5
(g9
S'\x00\x00\x00\x00\xf0\x98\xc1?'
p283
tp284
Rp285
sg15
I1000
sg16
I8
sg17
F6.119701147079468
sa(dp286
g2
I55396
sg3
I0
sg4
g5
(g9
S'\xd8\x82-\xd8\xf6\xfc\xc1?'
p287
tp288
Rp289
sg15
I1000
sg16
I9
sg17
F6.602766036987305
sa(dp290
g2
I53152
sg3
I1
sg4
g5
(g9
S'\xee\x88;\xe2\xf0\xfb\xc1?'
p291
tp292
Rp293
sg15
I1000
sg16
I9
sg17
F6.321537971496582
sa(dp294
g2
I58389
sg3
I0
sg4
g5
(g9
S'UUUu\xd3\x1d\xc2?'
p295
tp296
Rp297
sg15
I1000
sg16
I10
sg17
F7.044786214828491
sa(dp298
g2
I54652
sg3
I1
sg4
g5
(g9
S'\xe9\xa2\x8b\xaegs\xc3?'
p299
tp300
Rp301
sg15
I1000
sg16
I10
sg17
F6.994645833969116
sa.